target datalayout = "e-m:e-p270:32:32-p271:32:32-p272:64:64-i64:64-i128:128-f80:128-n8:16:32:64-S128"
target triple = "x86_64-pc-linux-gnu"

; Function Attrs: nounwind uwtable
define internal i32 @opj_jp2_write_jp(ptr noundef %0, ptr noundef %1, ptr noundef %2) #0 {
  %4 = alloca i32, align 4
  %5 = alloca ptr, align 8
  %6 = alloca ptr, align 8
  %7 = alloca ptr, align 8
  %8 = alloca [12 x i8], align 1
  %9 = alloca i32, align 4
  store ptr %0, ptr %5, align 8, !tbaa !3
  store ptr %1, ptr %6, align 8, !tbaa !8
  store ptr %2, ptr %7, align 8, !tbaa !12
  call void @llvm.lifetime.start.p0(i64 12, ptr %8) #5
  %10 = getelementptr inbounds [12 x i8], ptr %8, i64 0, i64 0
  call void @opj_write_bytes_LE(ptr noundef %10, i32 noundef 12, i32 noundef 4)
  %11 = getelementptr inbounds [12 x i8], ptr %8, i64 0, i64 0
  %12 = getelementptr inbounds i8, ptr %11, i64 4
  call void @opj_write_bytes_LE(ptr noundef %12, i32 noundef 1783636000, i32 noundef 4)
  %13 = getelementptr inbounds [12 x i8], ptr %8, i64 0, i64 0
  %14 = getelementptr inbounds i8, ptr %13, i64 8
  call void @opj_write_bytes_LE(ptr noundef %14, i32 noundef 218793738, i32 noundef 4)
  %15 = load ptr, ptr %6, align 8, !tbaa !8
  %16 = getelementptr inbounds [12 x i8], ptr %8, i64 0, i64 0
  %17 = load ptr, ptr %7, align 8, !tbaa !12
  %18 = call i64 @opj_stream_write_data(ptr noundef %15, ptr noundef %16, i64 noundef 12, ptr noundef %17)
  %19 = icmp ne i64 %18, 12
  br i1 %19, label %20, label %21

20:                                               ; preds = %3
  store i32 0, ptr %4, align 4
  store i32 1, ptr %9, align 4
  br label %22

21:                                               ; preds = %3
  store i32 1, ptr %4, align 4
  store i32 1, ptr %9, align 4
  br label %22

22:                                               ; preds = %21, %20
  call void @llvm.lifetime.end.p0(i64 12, ptr %8) #5
  %23 = load i32, ptr %4, align 4
  ret i32 %23
}