; Function Attrs: nounwind uwtable
define internal range(i32 0, 2) i32 @opj_jp2_write_jp(ptr readnone captures(none) %0, ptr noundef %1, ptr noundef %2) #0 {
  %4 = alloca [12 x i8], align 1
  call void @llvm.lifetime.start.p0(i64 12, ptr nonnull %4) #6
  call void @opj_write_bytes_LE(ptr noundef nonnull %4, i32 noundef 12, i32 noundef 4) #6
  %5 = getelementptr inbounds nuw i8, ptr %4, i64 4
  call void @opj_write_bytes_LE(ptr noundef nonnull %5, i32 noundef 1783636000, i32 noundef 4) #6
  %6 = getelementptr inbounds nuw i8, ptr %4, i64 8
  call void @opj_write_bytes_LE(ptr noundef nonnull %6, i32 noundef 218793738, i32 noundef 4) #6
  %7 = call i64 @opj_stream_write_data(ptr noundef %1, ptr noundef nonnull %4, i64 noundef 12, ptr noundef %2) #6
  %.not = icmp eq i64 %7, 12
  %. = zext i1 %.not to i32
  call void @llvm.lifetime.end.p0(i64 12, ptr nonnull %4) #6
  ret i32 %.
}